target datalayout = "e-m:e-p270:32:32-p271:32:32-p272:64:64-i64:64-i128:128-f80:128-n8:16:32:64-S128"
target triple = "x86_64-pc-linux-gnu"

%struct.lv_area_t = type { i32, i32, i32, i32 }

; Function Attrs: nounwind uwtable
define zeroext i1 @lv_area_is_on(ptr noundef %0, ptr noundef %1) #0 {
  %3 = alloca i1, align 1
  %4 = alloca ptr, align 8
  %5 = alloca ptr, align 8
  store ptr %0, ptr %4, align 8, !tbaa !3
  store ptr %1, ptr %5, align 8, !tbaa !3
  %6 = load ptr, ptr %4, align 8, !tbaa !3
  %7 = getelementptr inbounds nuw %struct.lv_area_t, ptr %6, i32 0, i32 0
  %8 = load i32, ptr %7, align 4, !tbaa !9
  %9 = load ptr, ptr %5, align 8, !tbaa !3
  %10 = getelementptr inbounds nuw %struct.lv_area_t, ptr %9, i32 0, i32 2
  %11 = load i32, ptr %10, align 4, !tbaa !12
  %12 = icmp sle i32 %8, %11
  br i1 %12, label %13, label %38

13:                                               ; preds = %2
  %14 = load ptr, ptr %4, align 8, !tbaa !3
  %15 = getelementptr inbounds nuw %struct.lv_area_t, ptr %14, i32 0, i32 2
  %16 = load i32, ptr %15, align 4, !tbaa !12
  %17 = load ptr, ptr %5, align 8, !tbaa !3
  %18 = getelementptr inbounds nuw %struct.lv_area_t, ptr %17, i32 0, i32 0
  %19 = load i32, ptr %18, align 4, !tbaa !9
  %20 = icmp sge i32 %16, %19
  br i1 %20, label %21, label %38

21:                                               ; preds = %13
  %22 = load ptr, ptr %4, align 8, !tbaa !3
  %23 = getelementptr inbounds nuw %struct.lv_area_t, ptr %22, i32 0, i32 1
  %24 = load i32, ptr %23, align 4, !tbaa !11
  %25 = load ptr, ptr %5, align 8, !tbaa !3
  %26 = getelementptr inbounds nuw %struct.lv_area_t, ptr %25, i32 0, i32 3
  %27 = load i32, ptr %26, align 4, !tbaa !13
  %28 = icmp sle i32 %24, %27
  br i1 %28, label %29, label %38

29:                                               ; preds = %21
  %30 = load ptr, ptr %4, align 8, !tbaa !3
  %31 = getelementptr inbounds nuw %struct.lv_area_t, ptr %30, i32 0, i32 3
  %32 = load i32, ptr %31, align 4, !tbaa !13
  %33 = load ptr, ptr %5, align 8, !tbaa !3
  %34 = getelementptr inbounds nuw %struct.lv_area_t, ptr %33, i32 0, i32 1
  %35 = load i32, ptr %34, align 4, !tbaa !11
  %36 = icmp sge i32 %32, %35
  br i1 %36, label %37, label %38

37:                                               ; preds = %29
  store i1 true, ptr %3, align 1
  br label %39

38:                                               ; preds = %29, %21, %13, %2
  store i1 false, ptr %3, align 1
  br label %39

39:                                               ; preds = %38, %37
  %40 = load i1, ptr %3, align 1
  ret i1 %40
}