; Function Attrs: mustprogress nofree norecurse nosync nounwind willreturn memory(argmem: read) uwtable
define noundef zeroext i1 @lv_area_is_on(ptr noundef readonly captures(none) %0, ptr noundef readonly captures(none) %1) local_unnamed_addr #3 {
  %3 = load i32, ptr %0, align 4, !tbaa !3
  %4 = getelementptr inbounds nuw i8, ptr %1, i64 8
  %5 = load i32, ptr %4, align 4, !tbaa !9
  %.not = icmp sgt i32 %3, %5
  br i1 %.not, label %20, label %6

6:                                                ; preds = %2
  %7 = getelementptr inbounds nuw i8, ptr %0, i64 8
  %8 = load i32, ptr %7, align 4, !tbaa !9
  %9 = load i32, ptr %1, align 4, !tbaa !3
  %.not9 = icmp slt i32 %8, %9
  br i1 %.not9, label %20, label %10

10:                                               ; preds = %6
  %11 = getelementptr inbounds nuw i8, ptr %0, i64 4
  %12 = load i32, ptr %11, align 4, !tbaa !8
  %13 = getelementptr inbounds nuw i8, ptr %1, i64 12
  %14 = load i32, ptr %13, align 4, !tbaa !10
  %.not10 = icmp sgt i32 %12, %14
  br i1 %.not10, label %20, label %15

15:                                               ; preds = %10
  %16 = getelementptr inbounds nuw i8, ptr %0, i64 12
  %17 = load i32, ptr %16, align 4, !tbaa !10
  %18 = getelementptr inbounds nuw i8, ptr %1, i64 4
  %19 = load i32, ptr %18, align 4, !tbaa !8
  %.not11 = icmp slt i32 %17, %19
  br i1 %.not11, label %20, label %21

20:                                               ; preds = %15, %10, %6, %2
  br label %21

21:                                               ; preds = %15, %20
  %.0 = phi i1 [ false, %20 ], [ true, %15 ]
  ret i1 %.0
}